; ModuleID = '37/371.c'
source_filename = "37/371.c"
target datalayout = "e-m:e-p270:32:32-p271:32:32-p272:64:64-i64:64-f80:128-n8:16:32:64-S128"
target triple = "x86_64-pc-linux-gnu"

@.str = private unnamed_addr constant [4 x i8] c"%d\0A\00", align 1
@.str.1 = private unnamed_addr constant [3 x i8] c"%c\00", align 1
@.str.2 = private unnamed_addr constant [3 x i8] c"no\00", align 1
@.str.3 = private unnamed_addr constant [2 x i8] c"\0A\00", align 1

; Function Attrs: noinline nounwind uwtable
define dso_local i32 @main() #0 {
  %1 = alloca i32, align 4
  %2 = alloca i8*, align 8
  %3 = alloca i8**, align 8
  %4 = alloca i8**, align 8
  %5 = alloca i8, align 1
  %6 = alloca i32, align 4
  %7 = alloca i32, align 4
  %8 = alloca i32, align 4
  %9 = alloca i32, align 4
  %10 = alloca i32, align 4
  %11 = alloca i32*, align 8
  %12 = alloca i32, align 4
  store i32 0, i32* %1, align 4
  store i32 0, i32* %6, align 4
  store i32 0, i32* %8, align 4
  store i32 1, i32* %9, align 4
  store i32 0, i32* %10, align 4
  store i32 0, i32* %12, align 4
  %13 = call noalias i8* @calloc(i64 26, i64 4) #3
  %14 = bitcast i8* %13 to i32*
  store i32* %14, i32** %11, align 8
  %15 = call i32 (i8*, ...) @__isoc99_scanf(i8* getelementptr inbounds ([4 x i8], [4 x i8]* @.str, i64 0, i64 0), i32* %7)
  %16 = load i32, i32* %7, align 4
  %17 = sext i32 %16 to i64
  %18 = call noalias i8* @calloc(i64 %17, i64 8) #3
  %19 = bitcast i8* %18 to i8**
  store i8** %19, i8*** %3, align 8
  store i8** %19, i8*** %4, align 8
  store i32 0, i32* %6, align 4
  br label %20

20:                                               ; preds = %33, %0
  %21 = load i32, i32* %6, align 4
  %22 = load i32, i32* %7, align 4
  %23 = icmp slt i32 %21, %22
  br i1 %23, label %24, label %36

24:                                               ; preds = %20
  %25 = call noalias i8* @calloc(i64 100, i64 1) #3
  store i8* %25, i8** %2, align 8
  %26 = load i8*, i8** %2, align 8
  %27 = call i32 (i8*, ...) bitcast (i32 (...)* @gets to i32 (i8*, ...)*)(i8* %26)
  %28 = load i8*, i8** %2, align 8
  %29 = load i8**, i8*** %3, align 8
  %30 = load i32, i32* %6, align 4
  %31 = sext i32 %30 to i64
  %32 = getelementptr inbounds i8*, i8** %29, i64 %31
  store i8* %28, i8** %32, align 8
  br label %33

33:                                               ; preds = %24
  %34 = load i32, i32* %6, align 4
  %35 = add nsw i32 %34, 1
  store i32 %35, i32* %6, align 4
  br label %20

36:                                               ; preds = %20
  store i32 0, i32* %6, align 4
  br label %37

37:                                               ; preds = %164, %36
  %38 = load i32, i32* %6, align 4
  %39 = load i32, i32* %7, align 4
  %40 = icmp slt i32 %38, %39
  br i1 %40, label %41, label %167

41:                                               ; preds = %37
  store i32 0, i32* %9, align 4
  br label %42

42:                                               ; preds = %50, %41
  %43 = load i32, i32* %9, align 4
  %44 = icmp slt i32 %43, 26
  br i1 %44, label %45, label %53

45:                                               ; preds = %42
  %46 = load i32*, i32** %11, align 8
  %47 = load i32, i32* %9, align 4
  %48 = sext i32 %47 to i64
  %49 = getelementptr inbounds i32, i32* %46, i64 %48
  store i32 0, i32* %49, align 4
  br label %50

50:                                               ; preds = %45
  %51 = load i32, i32* %9, align 4
  %52 = add nsw i32 %51, 1
  store i32 %52, i32* %9, align 4
  br label %42

53:                                               ; preds = %42
  store i32 0, i32* %8, align 4
  %54 = load i8**, i8*** %3, align 8
  %55 = load i32, i32* %6, align 4
  %56 = sext i32 %55 to i64
  %57 = getelementptr inbounds i8*, i8** %54, i64 %56
  %58 = load i8*, i8** %57, align 8
  %59 = load i32, i32* %8, align 4
  %60 = sext i32 %59 to i64
  %61 = getelementptr inbounds i8, i8* %58, i64 %60
  %62 = load i8, i8* %61, align 1
  store i8 %62, i8* %5, align 1
  br label %63

63:                                               ; preds = %99, %53
  %64 = load i8**, i8*** %3, align 8
  %65 = load i32, i32* %6, align 4
  %66 = sext i32 %65 to i64
  %67 = getelementptr inbounds i8*, i8** %64, i64 %66
  %68 = load i8*, i8** %67, align 8
  %69 = load i32, i32* %8, align 4
  %70 = sext i32 %69 to i64
  %71 = getelementptr inbounds i8, i8* %68, i64 %70
  %72 = load i8, i8* %71, align 1
  %73 = sext i8 %72 to i32
  %74 = icmp ne i32 %73, 0
  br i1 %74, label %75, label %102

75:                                               ; preds = %63
  %76 = load i8**, i8*** %3, align 8
  %77 = load i32, i32* %6, align 4
  %78 = sext i32 %77 to i64
  %79 = getelementptr inbounds i8*, i8** %76, i64 %78
  %80 = load i8*, i8** %79, align 8
  %81 = load i32, i32* %8, align 4
  %82 = sext i32 %81 to i64
  %83 = getelementptr inbounds i8, i8* %80, i64 %82
  %84 = load i8, i8* %83, align 1
  store i8 %84, i8* %5, align 1
  %85 = load i32*, i32** %11, align 8
  %86 = load i8, i8* %5, align 1
  %87 = sext i8 %86 to i32
  %88 = sext i32 %87 to i64
  %89 = getelementptr inbounds i32, i32* %85, i64 %88
  %90 = getelementptr inbounds i32, i32* %89, i64 -97
  %91 = load i32, i32* %90, align 4
  %92 = add nsw i32 %91, 1
  %93 = load i32*, i32** %11, align 8
  %94 = load i8, i8* %5, align 1
  %95 = sext i8 %94 to i32
  %96 = sub nsw i32 %95, 97
  %97 = sext i32 %96 to i64
  %98 = getelementptr inbounds i32, i32* %93, i64 %97
  store i32 %92, i32* %98, align 4
  br label %99

99:                                               ; preds = %75
  %100 = load i32, i32* %8, align 4
  %101 = add nsw i32 %100, 1
  store i32 %101, i32* %8, align 4
  br label %63

102:                                              ; preds = %63
  store i32 0, i32* %12, align 4
  store i32 0, i32* %8, align 4
  %103 = load i8**, i8*** %3, align 8
  %104 = load i32, i32* %6, align 4
  %105 = sext i32 %104 to i64
  %106 = getelementptr inbounds i8*, i8** %103, i64 %105
  %107 = load i8*, i8** %106, align 8
  %108 = load i32, i32* %8, align 4
  %109 = sext i32 %108 to i64
  %110 = getelementptr inbounds i8, i8* %107, i64 %109
  %111 = load i8, i8* %110, align 1
  store i8 %111, i8* %5, align 1
  br label %112

112:                                              ; preds = %148, %102
  %113 = load i8**, i8*** %3, align 8
  %114 = load i32, i32* %6, align 4
  %115 = sext i32 %114 to i64
  %116 = getelementptr inbounds i8*, i8** %113, i64 %115
  %117 = load i8*, i8** %116, align 8
  %118 = load i32, i32* %8, align 4
  %119 = sext i32 %118 to i64
  %120 = getelementptr inbounds i8, i8* %117, i64 %119
  %121 = load i8, i8* %120, align 1
  %122 = sext i8 %121 to i32
  %123 = icmp ne i32 %122, 0
  br i1 %123, label %124, label %151

124:                                              ; preds = %112
  %125 = load i8**, i8*** %3, align 8
  %126 = load i32, i32* %6, align 4
  %127 = sext i32 %126 to i64
  %128 = getelementptr inbounds i8*, i8** %125, i64 %127
  %129 = load i8*, i8** %128, align 8
  %130 = load i32, i32* %8, align 4
  %131 = sext i32 %130 to i64
  %132 = getelementptr inbounds i8, i8* %129, i64 %131
  %133 = load i8, i8* %132, align 1
  store i8 %133, i8* %5, align 1
  %134 = load i32*, i32** %11, align 8
  %135 = load i8, i8* %5, align 1
  %136 = sext i8 %135 to i32
  %137 = sub nsw i32 %136, 97
  %138 = sext i32 %137 to i64
  %139 = getelementptr inbounds i32, i32* %134, i64 %138
  %140 = load i32, i32* %139, align 4
  store i32 %140, i32* %9, align 4
  %141 = load i32, i32* %9, align 4
  %142 = icmp eq i32 %141, 1
  br i1 %142, label %143, label %147

143:                                              ; preds = %124
  %144 = load i8, i8* %5, align 1
  %145 = sext i8 %144 to i32
  %146 = call i32 (i8*, ...) @printf(i8* getelementptr inbounds ([3 x i8], [3 x i8]* @.str.1, i64 0, i64 0), i32 %145)
  store i32 1, i32* %12, align 4
  br label %151

147:                                              ; preds = %124
  br label %148

148:                                              ; preds = %147
  %149 = load i32, i32* %8, align 4
  %150 = add nsw i32 %149, 1
  store i32 %150, i32* %8, align 4
  br label %112

151:                                              ; preds = %143, %112
  %152 = load i32, i32* %12, align 4
  %153 = icmp eq i32 %152, 0
  br i1 %153, label %154, label %156

154:                                              ; preds = %151
  %155 = call i32 (i8*, ...) @printf(i8* getelementptr inbounds ([3 x i8], [3 x i8]* @.str.2, i64 0, i64 0))
  br label %156

156:                                              ; preds = %154, %151
  %157 = load i32, i32* %6, align 4
  %158 = load i32, i32* %7, align 4
  %159 = sub nsw i32 %158, 1
  %160 = icmp ne i32 %157, %159
  br i1 %160, label %161, label %163

161:                                              ; preds = %156
  %162 = call i32 (i8*, ...) @printf(i8* getelementptr inbounds ([2 x i8], [2 x i8]* @.str.3, i64 0, i64 0))
  br label %163

163:                                              ; preds = %161, %156
  br label %164

164:                                              ; preds = %163
  %165 = load i32, i32* %6, align 4
  %166 = add nsw i32 %165, 1
  store i32 %166, i32* %6, align 4
  br label %37

167:                                              ; preds = %37
  %168 = load i32, i32* %1, align 4
  ret i32 %168
}

; Function Attrs: nounwind
declare dso_local noalias i8* @calloc(i64, i64) #1

declare dso_local i32 @__isoc99_scanf(i8*, ...) #2

declare dso_local i32 @gets(...) #2

declare dso_local i32 @printf(i8*, ...) #2


!llvm.module.flags = !{!0}
!llvm.ident = !{!1}

!0 = !{i32 1, !"wchar_size", i32 4}
!1 = !{!"clang version 10.0.0-4ubuntu1 "}
